target datalayout = "e-m:e-p270:32:32-p271:32:32-p272:64:64-i64:64-i128:128-f80:128-n8:16:32:64-S128"
target triple = "x86_64-pc-linux-gnu"

%"class.osgeo::proj::util::BaseObject" = type { ptr, %"class.std::unique_ptr" }
%"class.std::unique_ptr" = type { %"struct.std::__uniq_ptr_data" }
%"struct.std::__uniq_ptr_data" = type { %"class.std::__uniq_ptr_impl" }
%"class.std::__uniq_ptr_impl" = type { %"class.std::tuple" }
%"class.std::tuple" = type { %"struct.std::_Tuple_impl" }
%"struct.std::_Tuple_impl" = type { %"struct.std::_Head_base.1" }
%"struct.std::_Head_base.1" = type { ptr }
%"class.osgeo::proj::metadata::GeographicExtent" = type { %"class.osgeo::proj::util::BaseObject", %"class.osgeo::proj::util::IComparable", %"class.std::unique_ptr.10" }
%"class.osgeo::proj::util::IComparable" = type { ptr }
%"class.std::unique_ptr.10" = type { %"struct.std::__uniq_ptr_data.11" }
%"struct.std::__uniq_ptr_data.11" = type { %"class.std::__uniq_ptr_impl.12" }
%"class.std::__uniq_ptr_impl.12" = type { %"class.std::tuple.13" }
%"class.std::tuple.13" = type { %"struct.std::_Tuple_impl.14" }
%"struct.std::_Tuple_impl.14" = type { %"struct.std::_Head_base.17" }
%"struct.std::_Head_base.17" = type { ptr }
%"class.osgeo::proj::metadata::GeographicBoundingBox" = type { %"class.osgeo::proj::metadata::GeographicExtent", %"class.std::unique_ptr.18" }
%"class.std::unique_ptr.18" = type { %"struct.std::__uniq_ptr_data.19" }
%"struct.std::__uniq_ptr_data.19" = type { %"class.std::__uniq_ptr_impl.20" }
%"class.std::__uniq_ptr_impl.20" = type { %"class.std::tuple.21" }
%"class.std::tuple.21" = type { %"struct.std::_Tuple_impl.22" }
%"struct.std::_Tuple_impl.22" = type { %"struct.std::_Head_base.25" }
%"struct.std::_Head_base.25" = type { ptr }
%"struct.osgeo::proj::metadata::GeographicBoundingBox::Private" = type { double, double, double, double }

@_ZTIN5osgeo4proj4util11IComparableE = external constant ptr
@_ZTIN5osgeo4proj8metadata21GeographicBoundingBoxE = constant { ptr, ptr, ptr } { ptr getelementptr inbounds (ptr, ptr @_ZTVN10__cxxabiv120__si_class_type_infoE, i64 2), ptr @_ZTSN5osgeo4proj8metadata21GeographicBoundingBoxE, ptr @_ZTIN5osgeo4proj8metadata16GeographicExtentE }, align 8

; Function Attrs: mustprogress nounwind uwtable
define linkonce_odr hidden noundef nonnull align 8 dereferenceable(8) ptr @_ZNSt10_Head_baseILm0EPN5osgeo4proj8metadata21GeographicBoundingBox7PrivateELb0EE7_M_headERKS6_(ptr noundef nonnull align 8 dereferenceable(8) %0) #3 comdat align 2 {
  %2 = alloca ptr, align 8
  store ptr %0, ptr %2, align 8
  %3 = load ptr, ptr %2, align 8
  %4 = getelementptr inbounds %"struct.std::_Head_base.25", ptr %3, i32 0, i32 0
  ret ptr %4
}

; Function Attrs: mustprogress nounwind uwtable
define linkonce_odr hidden noundef nonnull align 8 dereferenceable(8) ptr @_ZNSt11_Tuple_implILm0EJPN5osgeo4proj8metadata21GeographicBoundingBox7PrivateESt14default_deleteIS4_EEE7_M_headERKS8_(ptr noundef nonnull align 8 dereferenceable(8) %0) #3 comdat align 2 {
  %2 = alloca ptr, align 8
  store ptr %0, ptr %2, align 8
  %3 = load ptr, ptr %2, align 8
  %4 = call noundef nonnull align 8 dereferenceable(8) ptr @_ZNSt10_Head_baseILm0EPN5osgeo4proj8metadata21GeographicBoundingBox7PrivateELb0EE7_M_headERKS6_(ptr noundef nonnull align 8 dereferenceable(8) %3) #19
  ret ptr %4
}

; Function Attrs: mustprogress nounwind uwtable
define linkonce_odr hidden noundef nonnull align 8 dereferenceable(8) ptr @_ZSt12__get_helperILm0EPN5osgeo4proj8metadata21GeographicBoundingBox7PrivateEJSt14default_deleteIS4_EEERKT0_RKSt11_Tuple_implIXT_EJS8_DpT1_EE(ptr noundef nonnull align 8 dereferenceable(8) %0) #3 comdat {
  %2 = alloca ptr, align 8
  store ptr %0, ptr %2, align 8
  %3 = load ptr, ptr %2, align 8
  %4 = call noundef nonnull align 8 dereferenceable(8) ptr @_ZNSt11_Tuple_implILm0EJPN5osgeo4proj8metadata21GeographicBoundingBox7PrivateESt14default_deleteIS4_EEE7_M_headERKS8_(ptr noundef nonnull align 8 dereferenceable(8) %3) #19
  ret ptr %4
}

; Function Attrs: mustprogress nounwind uwtable
define linkonce_odr hidden noundef nonnull align 8 dereferenceable(8) ptr @_ZSt3getILm0EJPN5osgeo4proj8metadata21GeographicBoundingBox7PrivateESt14default_deleteIS4_EEERKNSt13tuple_elementIXT_ESt5tupleIJDpT0_EEE4typeERKSC_(ptr noundef nonnull align 8 dereferenceable(8) %0) #3 comdat {
  %2 = alloca ptr, align 8
  store ptr %0, ptr %2, align 8
  %3 = load ptr, ptr %2, align 8
  %4 = call noundef nonnull align 8 dereferenceable(8) ptr @_ZSt12__get_helperILm0EPN5osgeo4proj8metadata21GeographicBoundingBox7PrivateEJSt14default_deleteIS4_EEERKT0_RKSt11_Tuple_implIXT_EJS8_DpT1_EE(ptr noundef nonnull align 8 dereferenceable(8) %3) #19
  ret ptr %4
}

; Function Attrs: mustprogress nounwind uwtable
define linkonce_odr hidden noundef ptr @_ZNKSt15__uniq_ptr_implIN5osgeo4proj8metadata21GeographicBoundingBox7PrivateESt14default_deleteIS4_EE6_M_ptrEv(ptr noundef nonnull align 8 dereferenceable(8) %0) #3 comdat align 2 {
  %2 = alloca ptr, align 8
  store ptr %0, ptr %2, align 8
  %3 = load ptr, ptr %2, align 8
  %4 = getelementptr inbounds %"class.std::__uniq_ptr_impl.20", ptr %3, i32 0, i32 0
  %5 = call noundef nonnull align 8 dereferenceable(8) ptr @_ZSt3getILm0EJPN5osgeo4proj8metadata21GeographicBoundingBox7PrivateESt14default_deleteIS4_EEERKNSt13tuple_elementIXT_ESt5tupleIJDpT0_EEE4typeERKSC_(ptr noundef nonnull align 8 dereferenceable(8) %4) #19
  %6 = load ptr, ptr %5, align 8
  ret ptr %6
}

; Function Attrs: mustprogress nounwind uwtable
define linkonce_odr hidden noundef ptr @_ZNKSt10unique_ptrIN5osgeo4proj8metadata21GeographicBoundingBox7PrivateESt14default_deleteIS4_EE3getEv(ptr noundef nonnull align 8 dereferenceable(8) %0) #3 comdat align 2 {
  %2 = alloca ptr, align 8
  store ptr %0, ptr %2, align 8
  %3 = load ptr, ptr %2, align 8
  %4 = getelementptr inbounds %"class.std::unique_ptr.18", ptr %3, i32 0, i32 0
  %5 = call noundef ptr @_ZNKSt15__uniq_ptr_implIN5osgeo4proj8metadata21GeographicBoundingBox7PrivateESt14default_deleteIS4_EE6_M_ptrEv(ptr noundef nonnull align 8 dereferenceable(8) %4) #19
  ret ptr %5
}

; Function Attrs: mustprogress nounwind uwtable
define linkonce_odr hidden noundef ptr @_ZNKSt10unique_ptrIN5osgeo4proj8metadata21GeographicBoundingBox7PrivateESt14default_deleteIS4_EEptEv(ptr noundef nonnull align 8 dereferenceable(8) %0) #3 comdat align 2 {
  %2 = alloca ptr, align 8
  store ptr %0, ptr %2, align 8
  %3 = load ptr, ptr %2, align 8
  %4 = call noundef ptr @_ZNKSt10unique_ptrIN5osgeo4proj8metadata21GeographicBoundingBox7PrivateESt14default_deleteIS4_EE3getEv(ptr noundef nonnull align 8 dereferenceable(8) %3) #19
  ret ptr %4
}

; Function Attrs: mustprogress nounwind uwtable
define hidden noundef zeroext i1 @_ZNK5osgeo4proj8metadata21GeographicBoundingBox15_isEquivalentToEPKNS0_4util11IComparableENS4_9CriterionERKSt10shared_ptrINS0_2io15DatabaseContextEE(ptr noundef nonnull align 8 dereferenceable(40) %0, ptr noundef %1, i32 noundef %2, ptr noundef nonnull align 8 dereferenceable(16) %3) unnamed_addr #3 align 2 {
  %5 = alloca i1, align 1
  %6 = alloca ptr, align 8
  %7 = alloca ptr, align 8
  %8 = alloca i32, align 4
  %9 = alloca ptr, align 8
  %10 = alloca ptr, align 8
  store ptr %0, ptr %6, align 8
  store ptr %1, ptr %7, align 8
  store i32 %2, ptr %8, align 4
  store ptr %3, ptr %9, align 8
  %11 = load ptr, ptr %6, align 8
  %12 = load ptr, ptr %7, align 8
  %13 = icmp eq ptr %12, null
  br i1 %13, label %16, label %14

14:                                               ; preds = %4
  %15 = call ptr @__dynamic_cast(ptr %12, ptr @_ZTIN5osgeo4proj4util11IComparableE, ptr @_ZTIN5osgeo4proj8metadata21GeographicBoundingBoxE, i64 16) #19
  br label %17

16:                                               ; preds = %4
  br label %17

17:                                               ; preds = %16, %14
  %18 = phi ptr [ %15, %14 ], [ null, %16 ]
  store ptr %18, ptr %10, align 8
  %19 = load ptr, ptr %10, align 8
  %20 = icmp ne ptr %19, null
  br i1 %20, label %22, label %21

21:                                               ; preds = %17
  store i1 false, ptr %5, align 1
  br label %68

22:                                               ; preds = %17
  %23 = getelementptr inbounds %"class.osgeo::proj::metadata::GeographicBoundingBox", ptr %11, i32 0, i32 1
  %24 = call noundef ptr @_ZNKSt10unique_ptrIN5osgeo4proj8metadata21GeographicBoundingBox7PrivateESt14default_deleteIS4_EEptEv(ptr noundef nonnull align 8 dereferenceable(8) %23) #19
  %25 = getelementptr inbounds %"struct.osgeo::proj::metadata::GeographicBoundingBox::Private", ptr %24, i32 0, i32 0
  %26 = load double, ptr %25, align 8
  %27 = load ptr, ptr %10, align 8
  %28 = getelementptr inbounds %"class.osgeo::proj::metadata::GeographicBoundingBox", ptr %27, i32 0, i32 1
  %29 = call noundef ptr @_ZNKSt10unique_ptrIN5osgeo4proj8metadata21GeographicBoundingBox7PrivateESt14default_deleteIS4_EEptEv(ptr noundef nonnull align 8 dereferenceable(8) %28) #19
  %30 = getelementptr inbounds %"struct.osgeo::proj::metadata::GeographicBoundingBox::Private", ptr %29, i32 0, i32 0
  %31 = load double, ptr %30, align 8
  %32 = fcmp oeq double %26, %31
  br i1 %32, label %33, label %66

33:                                               ; preds = %22
  %34 = getelementptr inbounds %"class.osgeo::proj::metadata::GeographicBoundingBox", ptr %11, i32 0, i32 1
  %35 = call noundef ptr @_ZNKSt10unique_ptrIN5osgeo4proj8metadata21GeographicBoundingBox7PrivateESt14default_deleteIS4_EEptEv(ptr noundef nonnull align 8 dereferenceable(8) %34) #19
  %36 = getelementptr inbounds %"struct.osgeo::proj::metadata::GeographicBoundingBox::Private", ptr %35, i32 0, i32 1
  %37 = load double, ptr %36, align 8
  %38 = load ptr, ptr %10, align 8
  %39 = getelementptr inbounds %"class.osgeo::proj::metadata::GeographicBoundingBox", ptr %38, i32 0, i32 1
  %40 = call noundef ptr @_ZNKSt10unique_ptrIN5osgeo4proj8metadata21GeographicBoundingBox7PrivateESt14default_deleteIS4_EEptEv(ptr noundef nonnull align 8 dereferenceable(8) %39) #19
  %41 = getelementptr inbounds %"struct.osgeo::proj::metadata::GeographicBoundingBox::Private", ptr %40, i32 0, i32 1
  %42 = load double, ptr %41, align 8
  %43 = fcmp oeq double %37, %42
  br i1 %43, label %44, label %66

44:                                               ; preds = %33
  %45 = getelementptr inbounds %"class.osgeo::proj::metadata::GeographicBoundingBox", ptr %11, i32 0, i32 1
  %46 = call noundef ptr @_ZNKSt10unique_ptrIN5osgeo4proj8metadata21GeographicBoundingBox7PrivateESt14default_deleteIS4_EEptEv(ptr noundef nonnull align 8 dereferenceable(8) %45) #19
  %47 = getelementptr inbounds %"struct.osgeo::proj::metadata::GeographicBoundingBox::Private", ptr %46, i32 0, i32 2
  %48 = load double, ptr %47, align 8
  %49 = load ptr, ptr %10, align 8
  %50 = getelementptr inbounds %"class.osgeo::proj::metadata::GeographicBoundingBox", ptr %49, i32 0, i32 1
  %51 = call noundef ptr @_ZNKSt10unique_ptrIN5osgeo4proj8metadata21GeographicBoundingBox7PrivateESt14default_deleteIS4_EEptEv(ptr noundef nonnull align 8 dereferenceable(8) %50) #19
  %52 = getelementptr inbounds %"struct.osgeo::proj::metadata::GeographicBoundingBox::Private", ptr %51, i32 0, i32 2
  %53 = load double, ptr %52, align 8
  %54 = fcmp oeq double %48, %53
  br i1 %54, label %55, label %66

55:                                               ; preds = %44
  %56 = getelementptr inbounds %"class.osgeo::proj::metadata::GeographicBoundingBox", ptr %11, i32 0, i32 1
  %57 = call noundef ptr @_ZNKSt10unique_ptrIN5osgeo4proj8metadata21GeographicBoundingBox7PrivateESt14default_deleteIS4_EEptEv(ptr noundef nonnull align 8 dereferenceable(8) %56) #19
  %58 = getelementptr inbounds %"struct.osgeo::proj::metadata::GeographicBoundingBox::Private", ptr %57, i32 0, i32 3
  %59 = load double, ptr %58, align 8
  %60 = load ptr, ptr %10, align 8
  %61 = getelementptr inbounds %"class.osgeo::proj::metadata::GeographicBoundingBox", ptr %60, i32 0, i32 1
  %62 = call noundef ptr @_ZNKSt10unique_ptrIN5osgeo4proj8metadata21GeographicBoundingBox7PrivateESt14default_deleteIS4_EEptEv(ptr noundef nonnull align 8 dereferenceable(8) %61) #19
  %63 = getelementptr inbounds %"struct.osgeo::proj::metadata::GeographicBoundingBox::Private", ptr %62, i32 0, i32 3
  %64 = load double, ptr %63, align 8
  %65 = fcmp oeq double %59, %64
  br label %66

66:                                               ; preds = %55, %44, %33, %22
  %67 = phi i1 [ false, %44 ], [ false, %33 ], [ false, %22 ], [ %65, %55 ]
  store i1 %67, ptr %5, align 1
  br label %68

68:                                               ; preds = %66, %21
  %69 = load i1, ptr %5, align 1
  ret i1 %69
}

; Function Attrs: uwtable
define hidden noundef zeroext i1 @_ZThn16_NK5osgeo4proj8metadata21GeographicBoundingBox15_isEquivalentToEPKNS0_4util11IComparableENS4_9CriterionERKSt10shared_ptrINS0_2io15DatabaseContextEE(ptr noundef %0, ptr noundef %1, i32 noundef %2, ptr noundef nonnull align 8 dereferenceable(16) %3) unnamed_addr #9 align 2 {
  %5 = alloca ptr, align 8
  %6 = alloca ptr, align 8
  %7 = alloca i32, align 4
  %8 = alloca ptr, align 8
  store ptr %0, ptr %5, align 8
  store ptr %1, ptr %6, align 8
  store i32 %2, ptr %7, align 4
  store ptr %3, ptr %8, align 8
  %9 = load ptr, ptr %5, align 8
  %10 = getelementptr inbounds i8, ptr %9, i64 -16
  %11 = load ptr, ptr %6, align 8
  %12 = load i32, ptr %7, align 4
  %13 = load ptr, ptr %8, align 8
  %14 = tail call noundef zeroext i1 @_ZNK5osgeo4proj8metadata21GeographicBoundingBox15_isEquivalentToEPKNS0_4util11IComparableENS4_9CriterionERKSt10shared_ptrINS0_2io15DatabaseContextEE(ptr noundef nonnull align 8 dereferenceable(40) %10, ptr noundef %11, i32 noundef %12, ptr noundef nonnull align 8 dereferenceable(16) %13)
  ret i1 %14
}