; Function Attrs: mustprogress nofree nounwind willreturn memory(read) uwtable
define hidden noundef zeroext i1 @_ZThn16_NK5osgeo4proj8metadata21GeographicBoundingBox15_isEquivalentToEPKNS0_4util11IComparableENS4_9CriterionERKSt10shared_ptrINS0_2io15DatabaseContextEE(ptr nocapture noundef readonly %0, ptr noundef readonly %1, i32 %2, ptr nocapture nonnull readnone align 8 %3) unnamed_addr #11 align 2 {
  %5 = icmp eq ptr %1, null
  br i1 %5, label %_ZNK5osgeo4proj8metadata21GeographicBoundingBox15_isEquivalentToEPKNS0_4util11IComparableENS4_9CriterionERKSt10shared_ptrINS0_2io15DatabaseContextEE.exit, label %6

6:                                                ; preds = %4
  %7 = tail call ptr @__dynamic_cast(ptr nonnull %1, ptr nonnull @_ZTIN5osgeo4proj4util11IComparableE, ptr nonnull @_ZTIN5osgeo4proj8metadata21GeographicBoundingBoxE, i64 16) #28
  %.not.i = icmp eq ptr %7, null
  br i1 %.not.i, label %_ZNK5osgeo4proj8metadata21GeographicBoundingBox15_isEquivalentToEPKNS0_4util11IComparableENS4_9CriterionERKSt10shared_ptrINS0_2io15DatabaseContextEE.exit, label %8

8:                                                ; preds = %6
  %9 = getelementptr inbounds i8, ptr %0, i64 16
  %10 = load ptr, ptr %9, align 8
  %11 = load double, ptr %10, align 8
  %12 = getelementptr inbounds i8, ptr %7, i64 32
  %13 = load ptr, ptr %12, align 8
  %14 = load double, ptr %13, align 8
  %15 = fcmp oeq double %11, %14
  br i1 %15, label %16, label %_ZNK5osgeo4proj8metadata21GeographicBoundingBox15_isEquivalentToEPKNS0_4util11IComparableENS4_9CriterionERKSt10shared_ptrINS0_2io15DatabaseContextEE.exit

16:                                               ; preds = %8
  %17 = getelementptr inbounds i8, ptr %10, i64 8
  %18 = load double, ptr %17, align 8
  %19 = getelementptr inbounds i8, ptr %13, i64 8
  %20 = load double, ptr %19, align 8
  %21 = fcmp oeq double %18, %20
  br i1 %21, label %22, label %_ZNK5osgeo4proj8metadata21GeographicBoundingBox15_isEquivalentToEPKNS0_4util11IComparableENS4_9CriterionERKSt10shared_ptrINS0_2io15DatabaseContextEE.exit

22:                                               ; preds = %16
  %23 = getelementptr inbounds i8, ptr %10, i64 16
  %24 = load double, ptr %23, align 8
  %25 = getelementptr inbounds i8, ptr %13, i64 16
  %26 = load double, ptr %25, align 8
  %27 = fcmp oeq double %24, %26
  br i1 %27, label %28, label %_ZNK5osgeo4proj8metadata21GeographicBoundingBox15_isEquivalentToEPKNS0_4util11IComparableENS4_9CriterionERKSt10shared_ptrINS0_2io15DatabaseContextEE.exit

28:                                               ; preds = %22
  %29 = getelementptr inbounds i8, ptr %10, i64 24
  %30 = load double, ptr %29, align 8
  %31 = getelementptr inbounds i8, ptr %13, i64 24
  %32 = load double, ptr %31, align 8
  %33 = fcmp oeq double %30, %32
  br label %_ZNK5osgeo4proj8metadata21GeographicBoundingBox15_isEquivalentToEPKNS0_4util11IComparableENS4_9CriterionERKSt10shared_ptrINS0_2io15DatabaseContextEE.exit

_ZNK5osgeo4proj8metadata21GeographicBoundingBox15_isEquivalentToEPKNS0_4util11IComparableENS4_9CriterionERKSt10shared_ptrINS0_2io15DatabaseContextEE.exit: ; preds = %4, %6, %8, %16, %22, %28
  %.0.i = phi i1 [ false, %6 ], [ false, %22 ], [ false, %16 ], [ false, %8 ], [ %33, %28 ], [ false, %4 ]
  ret i1 %.0.i
}